; Function Attrs: mustprogress uwtable
define hidden noundef nonnull align 8 dereferenceable(8) ptr @_ZNK3sat12local_search7displayERSojRKNS0_8var_infoE(ptr nonnull readnone align 8 captures(none) %0, ptr noundef nonnull returned align 8 dereferenceable(8) %1, i32 noundef %2, ptr noundef nonnull readonly align 8 captures(none) dereferenceable(120) %3) local_unnamed_addr #3 align 2 {
  %5 = tail call noundef nonnull align 8 dereferenceable(8) ptr @_ZSt16__ostream_insertIcSt11char_traitsIcEERSt13basic_ostreamIT_T0_ES6_PKS3_l(ptr noundef nonnull align 8 dereferenceable(8) %1, ptr noundef nonnull @.str.31, i64 noundef 1)
  %6 = zext i32 %2 to i64
  %7 = tail call noundef nonnull align 8 dereferenceable(8) ptr @_ZNSo9_M_insertImEERSoT_(ptr noundef nonnull align 8 dereferenceable(8) %1, i64 noundef %6)
  %8 = tail call noundef nonnull align 8 dereferenceable(8) ptr @_ZSt16__ostream_insertIcSt11char_traitsIcEERSt13basic_ostreamIT_T0_ES6_PKS3_l(ptr noundef nonnull align 8 dereferenceable(8) %7, ptr noundef nonnull @.str.36, i64 noundef 4)
  %9 = load i8, ptr %3, align 8, !tbaa !54, !range !7, !noundef !8
  %10 = trunc nuw i8 %9 to i1
  %11 = select i1 %10, ptr @.str.37, ptr @.str.38
  %12 = select i1 %10, i64 4, i64 5
  %13 = tail call noundef nonnull align 8 dereferenceable(8) ptr @_ZSt16__ostream_insertIcSt11char_traitsIcEERSt13basic_ostreamIT_T0_ES6_PKS3_l(ptr noundef nonnull align 8 dereferenceable(8) %7, ptr noundef nonnull %11, i64 noundef %12)
  %14 = tail call noundef nonnull align 8 dereferenceable(8) ptr @_ZSt16__ostream_insertIcSt11char_traitsIcEERSt13basic_ostreamIT_T0_ES6_PKS3_l(ptr noundef nonnull align 8 dereferenceable(8) %7, ptr noundef nonnull @.str.39, i64 noundef 7)
  %15 = getelementptr inbounds nuw i8, ptr %3, i64 4
  %16 = load i32, ptr %15, align 4, !tbaa !56
  %17 = zext i32 %16 to i64
  %18 = tail call noundef nonnull align 8 dereferenceable(8) ptr @_ZNSo9_M_insertImEERSoT_(ptr noundef nonnull align 8 dereferenceable(8) %7, i64 noundef %17)
  %19 = getelementptr inbounds nuw i8, ptr %3, i64 8
  %20 = load i8, ptr %19, align 8, !tbaa !50, !range !7, !noundef !8
  %21 = trunc nuw i8 %20 to i1
  br i1 %21, label %22, label %_ZN3satlsERSoNS_7literalE.exit

22:                                               ; preds = %4
  %23 = tail call noundef nonnull align 8 dereferenceable(8) ptr @_ZSt16__ostream_insertIcSt11char_traitsIcEERSt13basic_ostreamIT_T0_ES6_PKS3_l(ptr noundef nonnull align 8 dereferenceable(8) %1, ptr noundef nonnull @.str.40, i64 noundef 3)
  %24 = getelementptr inbounds nuw i8, ptr %3, i64 12
  %.sroa.0.0.copyload = load i32, ptr %24, align 4, !tbaa !13
  %25 = icmp eq i32 %.sroa.0.0.copyload, -2
  br i1 %25, label %26, label %28

26:                                               ; preds = %22
  %27 = tail call noundef nonnull align 8 dereferenceable(8) ptr @_ZSt16__ostream_insertIcSt11char_traitsIcEERSt13basic_ostreamIT_T0_ES6_PKS3_l(ptr noundef nonnull align 8 dereferenceable(8) %1, ptr noundef nonnull @.str.47, i64 noundef 4)
  br label %_ZN3satlsERSoNS_7literalE.exit

28:                                               ; preds = %22
  %29 = and i32 %.sroa.0.0.copyload, 1
  %.not.not.i = icmp eq i32 %29, 0
  %30 = select i1 %.not.not.i, ptr @.str.49, ptr @.str.48
  %31 = zext nneg i32 %29 to i64
  %32 = tail call noundef nonnull align 8 dereferenceable(8) ptr @_ZSt16__ostream_insertIcSt11char_traitsIcEERSt13basic_ostreamIT_T0_ES6_PKS3_l(ptr noundef nonnull align 8 dereferenceable(8) %1, ptr noundef nonnull %30, i64 noundef %31)
  %33 = lshr i32 %.sroa.0.0.copyload, 1
  %34 = zext nneg i32 %33 to i64
  %35 = tail call noundef nonnull align 8 dereferenceable(8) ptr @_ZNSo9_M_insertImEERSoT_(ptr noundef nonnull align 8 dereferenceable(8) %1, i64 noundef %34)
  br label %_ZN3satlsERSoNS_7literalE.exit

_ZN3satlsERSoNS_7literalE.exit:                   ; preds = %28, %26, %4
  %36 = tail call noundef nonnull align 8 dereferenceable(8) ptr @_ZSt16__ostream_insertIcSt11char_traitsIcEERSt13basic_ostreamIT_T0_ES6_PKS3_l(ptr noundef nonnull align 8 dereferenceable(8) %1, ptr noundef nonnull @.str.8, i64 noundef 1)
  ret ptr %1
}